; Function Attrs: mustprogress nounwind uwtable
define hidden noundef ptr @_ZN20ClassLoaderMetaspace8allocateEmN9Metaspace12MetadataTypeE(ptr nocapture noundef nonnull readonly align 8 dereferenceable(32) %0, i64 noundef %1, i32 noundef %2) local_unnamed_addr #0 align 2 {
  %4 = load ptr, ptr %0, align 8
  %.not.i.i = icmp eq ptr %4, null
  br i1 %.not.i.i, label %_ZN11MutexLockerC2EP5MutexNS0_18SafepointCheckFlagE.exit, label %5

5:                                                ; preds = %3
  tail call void @_ZN5Mutex28lock_without_safepoint_checkEv(ptr noundef nonnull align 8 dereferenceable(104) %4) #6
  br label %_ZN11MutexLockerC2EP5MutexNS0_18SafepointCheckFlagE.exit

_ZN11MutexLockerC2EP5MutexNS0_18SafepointCheckFlagE.exit: ; preds = %3, %5
  %6 = icmp eq i32 %2, 0
  %7 = load i8, ptr @UseCompressedClassPointers, align 1
  %8 = trunc i8 %7 to i1
  %9 = select i1 %6, i1 %8, i1 false
  %. = select i1 %9, i64 24, i64 16
  %10 = getelementptr inbounds i8, ptr %0, i64 %.
  %11 = load ptr, ptr %10, align 8
  %12 = tail call noundef ptr @_ZN9metaspace14MetaspaceArena8allocateEm(ptr noundef nonnull align 8 dereferenceable(56) %11, i64 noundef %1) #6
  br i1 %.not.i.i, label %_ZN11MutexLockerD2Ev.exit, label %13

13:                                               ; preds = %_ZN11MutexLockerC2EP5MutexNS0_18SafepointCheckFlagE.exit
  tail call void @_ZN5Mutex6unlockEv(ptr noundef nonnull align 8 dereferenceable(104) %4) #6
  br label %_ZN11MutexLockerD2Ev.exit

_ZN11MutexLockerD2Ev.exit:                        ; preds = %_ZN11MutexLockerC2EP5MutexNS0_18SafepointCheckFlagE.exit, %13
  ret ptr %12
}